	.file	"rec.cpp"
	.text
	.globl	_Z3recii
	.type	_Z3recii, @function
_Z3recii:
.LFB0:
	.cfi_startproc
	pushq	%rbp
	.cfi_def_cfa_offset 16
	.cfi_offset 6, -16
	movq	%rsp, %rbp
	.cfi_def_cfa_register 6
	subq	$16, %rsp
	movl	%edi, -4(%rbp)
	movl	%esi, -8(%rbp)
	cmpl	$1, -8(%rbp)
	jne	.L2
	movl	-4(%rbp), %eax
	jmp	.L3
.L2:
	movl	-8(%rbp), %eax
	leal	-1(%rax), %edx
	movl	-4(%rbp), %eax
	movl	%edx, %esi
	movl	%eax, %edi
	call	_Z3recii
	imull	-4(%rbp), %eax
.L3:
	leave
	.cfi_def_cfa 7, 8
	ret
	.cfi_endproc
.LFE0:
	.size	_Z3recii, .-_Z3recii
	.section	.rodata
.LC0:
	.string	"%d\n"
	.text
	.globl	main
	.type	main, @function
main:
.LFB1:
	.cfi_startproc
	pushq	%rbp
	.cfi_def_cfa_offset 16
	.cfi_offset 6, -16
	movq	%rsp, %rbp
	.cfi_def_cfa_register 6
	subq	$16, %rsp
	movl	$2, -12(%rbp)
	movl	$7, -8(%rbp)
	movl	-8(%rbp), %edx
	movl	-12(%rbp), %eax
	movl	%edx, %esi
	movl	%eax, %edi
	call	_Z3recii
	movl	%eax, -4(%rbp)
	movl	-4(%rbp), %eax
	movl	%eax, %esi
	movl	$.LC0, %edi
	movl	$0, %eax
	call	printf
	movl	$0, %eax
	leave
	.cfi_def_cfa 7, 8
	ret
	.cfi_endproc
.LFE1:
	.size	main, .-main
	.ident	"GCC: (Ubuntu 5.4.0-6ubuntu1~16.04.10) 5.4.0 20160609"
	.section	.note.GNU-stack,"",@progbits
